///////////////////////////////////////////////////////////////////////////////
//
// IAR ANSI C/C++ Compiler V7.20.5.7591/W32 for ARM       02/Sep/2018  13:33:17
// Copyright 1999-2014 IAR Systems AB.
//
//    Cpu mode     =  thumb
//    Endian       =  little
//    Source file  =  
//        F:\Guardrail Work\Sensor Code\Git Repo\Sensor Code Sequential ADC
//        Reads\Shanit Origional Code\Connectivity
//        Test\PLM\Source\Keyboard\Keyboard.c
//    Command line =  
//        "F:\Guardrail Work\Sensor Code\Git Repo\Sensor Code Sequential ADC
//        Reads\Shanit Origional Code\Connectivity
//        Test\PLM\Source\Keyboard\Keyboard.c" -D IAR --preprocess
//        "F:\Guardrail Work\Sensor Code\Git Repo\Sensor Code Sequential ADC
//        Reads\Shanit Origional Code\Connectivity Test\Debug\List\" -lC
//        "F:\Guardrail Work\Sensor Code\Git Repo\Sensor Code Sequential ADC
//        Reads\Shanit Origional Code\Connectivity Test\Debug\List\" -lB
//        "F:\Guardrail Work\Sensor Code\Git Repo\Sensor Code Sequential ADC
//        Reads\Shanit Origional Code\Connectivity Test\Debug\List\"
//        --diag_suppress Pe014,Pe001,Pe991,Pa039,Pe520,Pe550,Pe177,Pa082 -o
//        "F:\Guardrail Work\Sensor Code\Git Repo\Sensor Code Sequential ADC
//        Reads\Shanit Origional Code\Connectivity Test\Debug\Obj\" --no_cse
//        --no_unroll --no_inline --no_code_motion --no_tbaa --no_clustering
//        --no_scheduling --debug --endian=little --cpu=Cortex-M4 -e --fpu=None
//        --dlib_config "C:\Program Files (x86)\IAR Systems\Embedded Workbench
//        7.0\arm\INC\c\DLib_Config_Normal.h" -I "F:\Guardrail Work\Sensor
//        Code\Git Repo\Sensor Code Sequential ADC Reads\Shanit Origional
//        Code\Connectivity Test\PLM\Configure\" -I "F:\Guardrail Work\Sensor
//        Code\Git Repo\Sensor Code Sequential ADC Reads\Shanit Origional
//        Code\Connectivity Test\PLM\Environment\" -I "F:\Guardrail Work\Sensor
//        Code\Git Repo\Sensor Code Sequential ADC Reads\Shanit Origional
//        Code\Connectivity Test\PLM\Interface\" -I "F:\Guardrail Work\Sensor
//        Code\Git Repo\Sensor Code Sequential ADC Reads\Shanit Origional
//        Code\Connectivity Test\Generic Services\Interface\" -I "F:\Guardrail
//        Work\Sensor Code\Git Repo\Sensor Code Sequential ADC Reads\Shanit
//        Origional Code\Connectivity Test\PLM\Source\Uart\" -I "F:\Guardrail
//        Work\Sensor Code\Git Repo\Sensor Code Sequential ADC Reads\Shanit
//        Origional Code\Connectivity Test\PLM\Source\USB\" -I "F:\Guardrail
//        Work\Sensor Code\Git Repo\Sensor Code Sequential ADC Reads\Shanit
//        Origional Code\Connectivity Test\PLM\Source\USB\APP\" -I
//        "F:\Guardrail Work\Sensor Code\Git Repo\Sensor Code Sequential ADC
//        Reads\Shanit Origional Code\Connectivity
//        Test\PLM\Source\USB\APP\CDC\" -I "F:\Guardrail Work\Sensor Code\Git
//        Repo\Sensor Code Sequential ADC Reads\Shanit Origional
//        Code\Connectivity Test\PLM\Source\USB\APP\Descriptor\" -I
//        "F:\Guardrail Work\Sensor Code\Git Repo\Sensor Code Sequential ADC
//        Reads\Shanit Origional Code\Connectivity Test\PLM\Source\USB\Class\"
//        -I "F:\Guardrail Work\Sensor Code\Git Repo\Sensor Code Sequential ADC
//        Reads\Shanit Origional Code\Connectivity Test\PLM\Source\USB\Common\"
//        -I "F:\Guardrail Work\Sensor Code\Git Repo\Sensor Code Sequential ADC
//        Reads\Shanit Origional Code\Connectivity Test\PLM\Source\USB\Driver\"
//        -I "F:\Guardrail Work\Sensor Code\Git Repo\Sensor Code Sequential ADC
//        Reads\Shanit Origional Code\Connectivity Test\PLM\Source\TMR\" -I
//        "F:\Guardrail Work\Sensor Code\Git Repo\Sensor Code Sequential ADC
//        Reads\Shanit Origional Code\Connectivity
//        Test\PLM\Source\Radio\MC1324x\PHY\" -I "F:\Guardrail Work\Sensor
//        Code\Git Repo\Sensor Code Sequential ADC Reads\Shanit Origional
//        Code\Connectivity Test\PLM\Source\Radio\MC1324x\DRV\" -I
//        "F:\Guardrail Work\Sensor Code\Git Repo\Sensor Code Sequential ADC
//        Reads\Shanit Origional Code\Connectivity Test\PLM\Source\Sys Common\"
//        -I "F:\Guardrail Work\Sensor Code\Git Repo\Sensor Code Sequential ADC
//        Reads\Shanit Origional Code\Connectivity Test\SMAC\Source\" -I
//        "F:\Guardrail Work\Sensor Code\Git Repo\Sensor Code Sequential ADC
//        Reads\Shanit Origional Code\Connectivity Test\SMAC\Interface\" -I
//        "F:\Guardrail Work\Sensor Code\Git Repo\Sensor Code Sequential ADC
//        Reads\Shanit Origional Code\Connectivity Test\SMAC\Configure\" -I
//        "F:\Guardrail Work\Sensor Code\Git Repo\Sensor Code Sequential ADC
//        Reads\Shanit Origional Code\Connectivity Test\Application\Source\" -I
//        "F:\Guardrail Work\Sensor Code\Git Repo\Sensor Code Sequential ADC
//        Reads\Shanit Origional Code\Connectivity Test\Application\Configure\"
//        -I "F:\Guardrail Work\Sensor Code\Git Repo\Sensor Code Sequential ADC
//        Reads\Shanit Origional Code\Connectivity Test\PLM\Source\NVM\" -I
//        "C:\Users\Robert\SkyDrive\2018 Spring Semester\Senior Design\Sensor
//        Code\Shanit Origional Code\Connectivity Test\PLM\Source\NVM\" -I
//        "C:\Users\Robert\SkyDrive\2018 Spring Semester\Senior Design\Sensor
//        Code\Shanit Origional Code\Connectivity Test\PLM\Source\ADC\" -I
//        "C:\Users\rfrum\OneDrive\2018 Spring Semester\Senior Design\Sensor
//        Code\Shanit Origional Code\Connectivity Test\PLM\Source\ADC\" -I
//        "F:\Guardrail Work\Sensor Code\Git Repo\Sensor Code Sequential ADC
//        Reads\Shanit Origional Code\Connectivity Test\PLM\Source\LPM\" -On
//    List file    =  
//        F:\Guardrail Work\Sensor Code\Git Repo\Sensor Code Sequential ADC
//        Reads\Shanit Origional Code\Connectivity Test\Debug\List\Keyboard.s
//
///////////////////////////////////////////////////////////////////////////////

        #define SHT_PROGBITS 0x1

        EXTERN NVIC_EnableIRQ

        PUBLIC KeyboardInit
        PUBLIC Switch_Press_ISR

// F:\Guardrail Work\Sensor Code\Git Repo\Sensor Code Sequential ADC Reads\Shanit Origional Code\Connectivity Test\PLM\Source\Keyboard\Keyboard.c
//    1 /******************************************************************************
//    2  * Source file for Keyboard driver.
//    3  * 
//    4  * Freescale Semiconductor Inc.
//    5  * (c) Copyright 2004-2011 Freescale Semiconductor, Inc.
//    6  * ALL RIGHTS RESERVED.
//    7  *
//    8 *******************************************************************************
//    9  *
//   10  * THIS SOFTWARE IS PROVIDED BY FREESCALE "AS IS" AND ANY EXPRESSED OR 
//   11  * IMPLIED WARRANTIES, INCLUDING, BUT NOT LIMITED TO, THE IMPLIED WARRANTIES 
//   12  * OF MERCHANTABILITY AND FITNESS FOR A PARTICULAR PURPOSE ARE DISCLAIMED.  
//   13  * IN NO EVENT SHALL FREESCALE OR ITS CONTRIBUTORS BE LIABLE FOR ANY DIRECT, 
//   14  * INDIRECT, INCIDENTAL, SPECIAL, EXEMPLARY, OR CONSEQUENTIAL DAMAGES 
//   15  * (INCLUDING, BUT NOT LIMITED TO, PROCUREMENT OF SUBSTITUTE GOODS OR 
//   16  * SERVICES; LOSS OF USE, DATA, OR PROFITS; OR BUSINESS INTERRUPTION) 
//   17  * HOWEVER CAUSED AND ON ANY THEORY OF LIABILITY, WHETHER IN CONTRACT, 
//   18  * STRICT LIABILITY, OR TORT (INCLUDING NEGLIGENCE OR OTHERWISE) ARISING 
//   19  * IN ANY WAY OUT OF THE USE OF THIS SOFTWARE, EVEN IF ADVISED OF 
//   20  * THE POSSIBILITY OF SUCH DAMAGE.
//   21  *
//   22 ***************************************************************************//*!
//   23 ******************************************************************************/
//   24 
//   25 #include "Keyboard.h"
//   26 
//   27 /******************************************************************************
//   28  *******************************************************************************
//   29  * Private macros
//   30  *******************************************************************************
//   31  ******************************************************************************/
//   32 
//   33 /******************************************************************************
//   34  *******************************************************************************
//   35  * Private type definitions
//   36  *******************************************************************************
//   37  ******************************************************************************/
//   38 
//   39 /******************************************************************************
//   40  *******************************************************************************
//   41  * Public memory definitions
//   42  *******************************************************************************
//   43  ******************************************************************************/
//   44 
//   45 
//   46 
//   47 /******************************************************************************
//   48  *******************************************************************************
//   49  * Private memory definitions
//   50  *******************************************************************************
//   51  ******************************************************************************/
//   52 
//   53 /******************************************************************************
//   54  *******************************************************************************
//   55  * Private function prototypes
//   56  *******************************************************************************
//   57  ******************************************************************************/
//   58 

        SECTION `.text`:CODE:NOROOT(1)
        THUMB
//   59 void KeyboardInit (void)
//   60 {
KeyboardInit:
        PUSH     {R7,LR}
//   61   gKeyboard_ClkGatingReg_c |= gKeyboard_ClkGatingBit_c;
        LDR.N    R0,??DataTable1  ;; 0x40048038
        LDR      R0,[R0, #+0]
        ORRS     R0,R0,#0x800
        LDR.N    R1,??DataTable1  ;; 0x40048038
        STR      R0,[R1, #+0]
//   62   gKeyboard_Switch1PinCtrlReg_c =  PORT_PCR_PS_MASK | PORT_PCR_PE_MASK | PORT_PCR_MUX(gSwitch_PinCtrlAltFunc_c) | PORT_PCR_IRQC(10);
        LDR.N    R0,??DataTable1_1  ;; 0xa0103
        LDR.N    R1,??DataTable1_2  ;; 0x4004b010
        STR      R0,[R1, #+0]
//   63   gKeyboard_Switch2PinCtrlReg_c =  PORT_PCR_PS_MASK | PORT_PCR_PE_MASK | PORT_PCR_MUX(gSwitch_PinCtrlAltFunc_c) | PORT_PCR_IRQC(10);
        LDR.N    R0,??DataTable1_1  ;; 0xa0103
        LDR.N    R1,??DataTable1_3  ;; 0x4004b014
        STR      R0,[R1, #+0]
//   64   gKeyboard_Switch3PinCtrlReg_c =  PORT_PCR_PS_MASK | PORT_PCR_PE_MASK | PORT_PCR_MUX(gSwitch_PinCtrlAltFunc_c) | PORT_PCR_IRQC(10);
        LDR.N    R0,??DataTable1_1  ;; 0xa0103
        LDR.N    R1,??DataTable1_4  ;; 0x4004b018
        STR      R0,[R1, #+0]
//   65   gKeyboard_Switch4PinCtrlReg_c =  PORT_PCR_PS_MASK | PORT_PCR_PE_MASK | PORT_PCR_MUX(gSwitch_PinCtrlAltFunc_c) | PORT_PCR_IRQC(10);
        LDR.N    R0,??DataTable1_1  ;; 0xa0103
        LDR.N    R1,??DataTable1_5  ;; 0x4004b01c
        STR      R0,[R1, #+0]
//   66   NVIC_EnableIRQ(gKeyboard_Irq_Number);
        MOVS     R0,#+61
        BL       NVIC_EnableIRQ
//   67 
//   68 }
        POP      {R0,PC}          ;; return
//   69 
//   70 /******************************************************************************
//   71  *******************************************************************************
//   72  * Private type definitions
//   73  *******************************************************************************
//   74  ******************************************************************************/
//   75 
//   76 /******************************************************************************
//   77  *******************************************************************************
//   78  * Private Memory Declarations
//   79  *******************************************************************************
//   80  ******************************************************************************/
//   81 
//   82 
//   83 /******************************************************************************
//   84  ******************************************************************************
//   85  * Public functions
//   86  ******************************************************************************
//   87  *****************************************************************************/
//   88 
//   89  /******************************************************************************/

        SECTION `.text`:CODE:NOROOT(1)
        THUMB
//   90 void Switch_Press_ISR(void)
//   91 {
//   92    if (PORT_PCR_ISF_MASK & gKeyboard_Switch1PinCtrlReg_c)
Switch_Press_ISR:
        LDR.N    R0,??DataTable1_2  ;; 0x4004b010
        LDR      R0,[R0, #+0]
        LSLS     R0,R0,#+7
        BPL.N    ??Switch_Press_ISR_0
//   93    {     
//   94      Led4Toggle();      
        LDR.N    R0,??DataTable1_6  ;; 0x400ff0cc
        LDR      R0,[R0, #+0]
        ORRS     R0,R0,#0x80
        LDR.N    R1,??DataTable1_6  ;; 0x400ff0cc
        STR      R0,[R1, #+0]
//   95    }  
//   96    if (gKeyboard_Switch2PinCtrlReg_c & PORT_PCR_ISF_MASK)
??Switch_Press_ISR_0:
        LDR.N    R0,??DataTable1_3  ;; 0x4004b014
        LDR      R0,[R0, #+0]
        LSLS     R0,R0,#+7
        BPL.N    ??Switch_Press_ISR_1
//   97    {    
//   98      Led3Toggle();      
        LDR.N    R0,??DataTable1_6  ;; 0x400ff0cc
        LDR      R0,[R0, #+0]
        ORRS     R0,R0,#0x40
        LDR.N    R1,??DataTable1_6  ;; 0x400ff0cc
        STR      R0,[R1, #+0]
//   99    }  
//  100     if (gKeyboard_Switch3PinCtrlReg_c & PORT_PCR_ISF_MASK)
??Switch_Press_ISR_1:
        LDR.N    R0,??DataTable1_4  ;; 0x4004b018
        LDR      R0,[R0, #+0]
        LSLS     R0,R0,#+7
        BPL.N    ??Switch_Press_ISR_2
//  101    {    
//  102      Led2Toggle();      
        LDR.N    R0,??DataTable1_6  ;; 0x400ff0cc
        LDR      R0,[R0, #+0]
        ORRS     R0,R0,#0x20
        LDR.N    R1,??DataTable1_6  ;; 0x400ff0cc
        STR      R0,[R1, #+0]
//  103    }  
//  104     if (gKeyboard_Switch4PinCtrlReg_c & PORT_PCR_ISF_MASK)
??Switch_Press_ISR_2:
        LDR.N    R0,??DataTable1_5  ;; 0x4004b01c
        LDR      R0,[R0, #+0]
        LSLS     R0,R0,#+7
        BPL.N    ??Switch_Press_ISR_3
//  105    {    
//  106      Led1Toggle();      
        LDR.N    R0,??DataTable1_6  ;; 0x400ff0cc
        LDR      R0,[R0, #+0]
        ORRS     R0,R0,#0x10
        LDR.N    R1,??DataTable1_6  ;; 0x400ff0cc
        STR      R0,[R1, #+0]
//  107    }  
//  108    
//  109    PORTC_ISFR |= gLED_Led1Pin_c | gLED_Led2Pin_c | gLED_Led3Pin_c | gLED_Led4Pin_c; 
??Switch_Press_ISR_3:
        LDR.N    R0,??DataTable1_7  ;; 0x4004b0a0
        LDR      R0,[R0, #+0]
        ORRS     R0,R0,#0xF0
        LDR.N    R1,??DataTable1_7  ;; 0x4004b0a0
        STR      R0,[R1, #+0]
//  110 }
        BX       LR               ;; return

        SECTION `.text`:CODE:NOROOT(2)
        SECTION_TYPE SHT_PROGBITS, 0
        DATA
??DataTable1:
        DC32     0x40048038

        SECTION `.text`:CODE:NOROOT(2)
        SECTION_TYPE SHT_PROGBITS, 0
        DATA
??DataTable1_1:
        DC32     0xa0103

        SECTION `.text`:CODE:NOROOT(2)
        SECTION_TYPE SHT_PROGBITS, 0
        DATA
??DataTable1_2:
        DC32     0x4004b010

        SECTION `.text`:CODE:NOROOT(2)
        SECTION_TYPE SHT_PROGBITS, 0
        DATA
??DataTable1_3:
        DC32     0x4004b014

        SECTION `.text`:CODE:NOROOT(2)
        SECTION_TYPE SHT_PROGBITS, 0
        DATA
??DataTable1_4:
        DC32     0x4004b018

        SECTION `.text`:CODE:NOROOT(2)
        SECTION_TYPE SHT_PROGBITS, 0
        DATA
??DataTable1_5:
        DC32     0x4004b01c

        SECTION `.text`:CODE:NOROOT(2)
        SECTION_TYPE SHT_PROGBITS, 0
        DATA
??DataTable1_6:
        DC32     0x400ff0cc

        SECTION `.text`:CODE:NOROOT(2)
        SECTION_TYPE SHT_PROGBITS, 0
        DATA
??DataTable1_7:
        DC32     0x4004b0a0

        SECTION `.iar_vfe_header`:DATA:NOALLOC:NOROOT(2)
        SECTION_TYPE SHT_PROGBITS, 0
        DATA
        DC32 0

        END
//  111 
// 
// 172 bytes in section .text
// 
// 172 bytes of CODE memory
//
//Errors: none
//Warnings: none
